target datalayout = "e-m:e-p270:32:32-p271:32:32-p272:64:64-i64:64-i128:128-f80:128-n8:16:32:64-S128"
target triple = "x86_64-pc-linux-gnu"

%struct.H5O_mesg_operator_t = type { i32, %union.anon.0 }
%union.anon.0 = type { ptr }
%struct.H5G_iter_lkp_t = type { ptr, ptr, ptr }

@H5G_init_g = external global i8, align 1
@H5_libterm_g = external global i8, align 1
@.str = private unnamed_addr constant [104 x i8] c"generated/home/dtcxzyw/WorkSpace/Projects/compilers/llvm-opt-benchmark/bench/hdf5/hdf5/src/H5Gcompact.c\00", align 1
@H5E_SYM_g = external global i64, align 8
@__func__.H5G__compact_lookup = private unnamed_addr constant [20 x i8] c"H5G__compact_lookup\00", align 1
@H5E_NOTFOUND_g = external global i64, align 8
@.str.7 = private unnamed_addr constant [35 x i8] c"error iterating over link messages\00", align 1

; Function Attrs: nounwind uwtable
define i32 @H5G__compact_lookup(ptr noundef %0, ptr noundef %1, ptr noundef %2, ptr noundef %3) #0 {
  %5 = alloca ptr, align 8
  %6 = alloca ptr, align 8
  %7 = alloca ptr, align 8
  %8 = alloca ptr, align 8
  %9 = alloca %struct.H5G_iter_lkp_t, align 8
  %10 = alloca %struct.H5O_mesg_operator_t, align 8
  %11 = alloca i32, align 4
  %12 = alloca i8, align 1
  store ptr %0, ptr %5, align 8, !tbaa !3
  store ptr %1, ptr %6, align 8, !tbaa !20
  store ptr %2, ptr %7, align 8, !tbaa !47
  store ptr %3, ptr %8, align 8, !tbaa !8
  call void @llvm.lifetime.start.p0(i64 24, ptr %9) #8
  call void @llvm.lifetime.start.p0(i64 16, ptr %10) #8
  call void @llvm.lifetime.start.p0(i64 4, ptr %11) #8
  store i32 0, ptr %11, align 4, !tbaa !10
  call void @llvm.lifetime.start.p0(i64 1, ptr %12) #8
  store i8 0, ptr %12, align 1, !tbaa !12
  %13 = load i8, ptr @H5G_init_g, align 1, !tbaa !12, !range !14, !noundef !15
  %14 = trunc i8 %13 to i1
  br i1 %14, label %19, label %15

15:                                               ; preds = %4
  %16 = load i8, ptr @H5_libterm_g, align 1, !tbaa !12, !range !14, !noundef !15
  %17 = trunc i8 %16 to i1
  %18 = xor i1 %17, true
  br label %19

19:                                               ; preds = %15, %4
  %20 = phi i1 [ true, %4 ], [ %18, %15 ]
  %21 = xor i1 %20, true
  %22 = xor i1 %21, true
  %23 = zext i1 %22 to i32
  %24 = sext i32 %23 to i64
  %25 = call i64 @llvm.expect.i64(i64 %24, i64 1)
  %26 = icmp ne i64 %25, 0
  br i1 %26, label %27, label %60

27:                                               ; preds = %19
  %28 = load ptr, ptr %6, align 8, !tbaa !20
  %29 = getelementptr inbounds nuw %struct.H5G_iter_lkp_t, ptr %9, i32 0, i32 0
  store ptr %28, ptr %29, align 8, !tbaa !49
  %30 = load ptr, ptr %8, align 8, !tbaa !8
  %31 = getelementptr inbounds nuw %struct.H5G_iter_lkp_t, ptr %9, i32 0, i32 1
  store ptr %30, ptr %31, align 8, !tbaa !51
  %32 = load ptr, ptr %7, align 8, !tbaa !47
  %33 = getelementptr inbounds nuw %struct.H5G_iter_lkp_t, ptr %9, i32 0, i32 2
  store ptr %32, ptr %33, align 8, !tbaa !52
  %34 = getelementptr inbounds nuw %struct.H5O_mesg_operator_t, ptr %10, i32 0, i32 0
  store i32 0, ptr %34, align 8, !tbaa !36
  %35 = getelementptr inbounds nuw %struct.H5O_mesg_operator_t, ptr %10, i32 0, i32 1
  store ptr @H5G__compact_lookup_cb, ptr %35, align 8, !tbaa !29
  %36 = load ptr, ptr %5, align 8, !tbaa !3
  %37 = call i32 @H5O_msg_iterate(ptr noundef %36, i32 noundef 6, ptr noundef %10, ptr noundef %9)
  %38 = icmp slt i32 %37, 0
  br i1 %38, label %39, label %58

39:                                               ; preds = %27
  br label %40

40:                                               ; preds = %39
  br label %41

41:                                               ; preds = %40
  br label %42

42:                                               ; preds = %41
  %43 = load i64, ptr @H5E_SYM_g, align 8, !tbaa !16
  %44 = load i64, ptr @H5E_NOTFOUND_g, align 8, !tbaa !16
  %45 = call i32 (ptr, ptr, i32, i64, i64, ptr, ...) @H5E_printf_stack(ptr noundef @.str, ptr noundef @__func__.H5G__compact_lookup, i32 noundef 465, i64 noundef %43, i64 noundef %44, ptr noundef @.str.7)
  br label %46

46:                                               ; preds = %42
  br label %47

47:                                               ; preds = %46
  store i8 1, ptr %12, align 1, !tbaa !12
  %48 = load i8, ptr %12, align 1, !tbaa !12, !range !14, !noundef !15
  %49 = trunc i8 %48 to i1
  %50 = zext i1 %49 to i8
  store i8 %50, ptr %12, align 1, !tbaa !12
  br label %51

51:                                               ; preds = %47
  br label %52

52:                                               ; preds = %51
  br label %53

53:                                               ; preds = %52
  store i32 -1, ptr %11, align 4, !tbaa !10
  br label %59

54:                                               ; No predecessors!
  br label %55

55:                                               ; preds = %54
  br label %56

56:                                               ; preds = %55
  br label %57

57:                                               ; preds = %56
  br label %58

58:                                               ; preds = %57, %27
  br label %59

59:                                               ; preds = %58, %53
  br label %60

60:                                               ; preds = %59, %19
  %61 = load i32, ptr %11, align 4, !tbaa !10
  call void @llvm.lifetime.end.p0(i64 1, ptr %12) #8
  call void @llvm.lifetime.end.p0(i64 4, ptr %11) #8
  call void @llvm.lifetime.end.p0(i64 16, ptr %10) #8
  call void @llvm.lifetime.end.p0(i64 24, ptr %9) #8
  ret i32 %61
}