; Function Attrs: nounwind uwtable
define range(i32 -1, 1) i32 @H5G__compact_lookup(ptr noundef %0, ptr noundef %1, ptr noundef %2, ptr noundef %3) local_unnamed_addr #0 {
  %5 = alloca %struct.H5G_iter_lkp_t, align 8
  %6 = alloca %struct.H5O_mesg_operator_t, align 8
  call void @llvm.lifetime.start.p0(i64 24, ptr nonnull %5) #8
  call void @llvm.lifetime.start.p0(i64 16, ptr nonnull %6) #8
  %7 = load i8, ptr @H5G_init_g, align 1, !tbaa !3, !range !7, !noundef !8
  %8 = trunc nuw i8 %7 to i1
  %9 = load i8, ptr @H5_libterm_g, align 1, !range !7
  %10 = trunc nuw i8 %9 to i1
  %11 = xor i1 %10, true
  %12 = select i1 %8, i1 true, i1 %11
  br i1 %12, label %13, label %23, !prof !9

13:                                               ; preds = %4
  store ptr %1, ptr %5, align 8, !tbaa !37
  %14 = getelementptr inbounds nuw i8, ptr %5, i64 8
  store ptr %3, ptr %14, align 8, !tbaa !40
  %15 = getelementptr inbounds nuw i8, ptr %5, i64 16
  store ptr %2, ptr %15, align 8, !tbaa !41
  store i32 0, ptr %6, align 8, !tbaa !27
  %16 = getelementptr inbounds nuw i8, ptr %6, i64 8
  store ptr @H5G__compact_lookup_cb, ptr %16, align 8, !tbaa !21
  %17 = call i32 @H5O_msg_iterate(ptr noundef %0, i32 noundef 6, ptr noundef nonnull %6, ptr noundef nonnull %5) #8
  %18 = icmp slt i32 %17, 0
  br i1 %18, label %19, label %23

19:                                               ; preds = %13
  %20 = load i64, ptr @H5E_SYM_g, align 8, !tbaa !10
  %21 = load i64, ptr @H5E_NOTFOUND_g, align 8, !tbaa !10
  %22 = call i32 (ptr, ptr, i32, i64, i64, ptr, ...) @H5E_printf_stack(ptr noundef nonnull @.str, ptr noundef nonnull @__func__.H5G__compact_lookup, i32 noundef 465, i64 noundef %20, i64 noundef %21, ptr noundef nonnull @.str.7) #8
  br label %23

23:                                               ; preds = %19, %13, %4
  %.0 = phi i32 [ -1, %19 ], [ 0, %13 ], [ 0, %4 ]
  call void @llvm.lifetime.end.p0(i64 16, ptr nonnull %6) #8
  call void @llvm.lifetime.end.p0(i64 24, ptr nonnull %5) #8
  ret i32 %.0
}